Modules list:
-------------
ext-testrx.c.27020.0.o:
    CODE              Offs=000000  Size=00020F  Align=00001  Fill=0000
    RODATA            Offs=000000  Size=00000E  Align=00001  Fill=0000
    BSS               Offs=000000  Size=000100  Align=00001  Fill=0000
crt0_cmd.s.27020.1.o:
    STARTUP           Offs=000000  Size=00001B  Align=00001  Fill=0000
write_stub.c.27020.2.o:
    CODE              Offs=00020F  Size=00004C  Align=00001  Fill=0000
initmainargs.s.27020.3.o:
    STARTUP           Offs=00001B  Size=000001  Align=00001  Fill=0000
C:\@prg\cc65\lib/rp6502.lib(_seterrno.o):
    CODE              Offs=00025B  Size=000009  Align=00001  Fill=0000
C:\@prg\cc65\lib/rp6502.lib(addeqsp.o):
    CODE              Offs=000264  Size=000011  Align=00001  Fill=0000
C:\@prg\cc65\lib/rp6502.lib(addysp.o):
    CODE              Offs=000275  Size=00000E  Align=00001  Fill=0000
C:\@prg\cc65\lib/rp6502.lib(axlong.o):
    CODE              Offs=000283  Size=00000D  Align=00001  Fill=0000
C:\@prg\cc65\lib/rp6502.lib(close.o):
    CODE              Offs=000290  Size=000011  Align=00001  Fill=0000
C:\@prg\cc65\lib/rp6502.lib(condes.o):
    CODE              Offs=0002A1  Size=00000C  Align=00001  Fill=0000
    DATA              Offs=000000  Size=000025  Align=00001  Fill=0000
    ONCE              Offs=000000  Size=00000C  Align=00001  Fill=0000
C:\@prg\cc65\lib/rp6502.lib(copydata.o):
    CODE              Offs=0002AD  Size=00002D  Align=00001  Fill=0000
C:\@prg\cc65\lib/rp6502.lib(crt0.o):
    STARTUP           Offs=00001C  Size=00002B  Align=00001  Fill=0000
C:\@prg\cc65\lib/rp6502.lib(ctype.o):
    RODATA            Offs=00000E  Size=00008B  Align=00001  Fill=0000
C:\@prg\cc65\lib/rp6502.lib(ctypemask.o):
    CODE              Offs=0002DA  Size=00001E  Align=00001  Fill=0000
C:\@prg\cc65\lib/rp6502.lib(decax1.o):
    CODE              Offs=0002F8  Size=000007  Align=00001  Fill=0000
C:\@prg\cc65\lib/rp6502.lib(decaxy.o):
    CODE              Offs=0002FF  Size=000009  Align=00001  Fill=0000
C:\@prg\cc65\lib/rp6502.lib(decsp4.o):
    CODE              Offs=000308  Size=00000D  Align=00001  Fill=0000
C:\@prg\cc65\lib/rp6502.lib(decsp6.o):
    CODE              Offs=000315  Size=00000D  Align=00001  Fill=0000
C:\@prg\cc65\lib/rp6502.lib(enter.o):
    CODE              Offs=000322  Size=00000E  Align=00001  Fill=0000
C:\@prg\cc65\lib/rp6502.lib(errno.o):
    CODE              Offs=000330  Size=00000A  Align=00001  Fill=0000
C:\@prg\cc65\lib/rp6502.lib(incsp1.o):
    CODE              Offs=00033A  Size=000007  Align=00001  Fill=0000
C:\@prg\cc65\lib/rp6502.lib(incsp2.o):
    CODE              Offs=000341  Size=000015  Align=00001  Fill=0000
C:\@prg\cc65\lib/rp6502.lib(incsp4.o):
    CODE              Offs=000356  Size=000005  Align=00001  Fill=0000
C:\@prg\cc65\lib/rp6502.lib(incsp8.o):
    CODE              Offs=00035B  Size=000005  Align=00001  Fill=0000
C:\@prg\cc65\lib/rp6502.lib(isdigit.o):
    CODE              Offs=000360  Size=000008  Align=00001  Fill=0000
C:\@prg\cc65\lib/rp6502.lib(islower.o):
    CODE              Offs=000368  Size=000008  Align=00001  Fill=0000
C:\@prg\cc65\lib/rp6502.lib(isspace.o):
    CODE              Offs=000370  Size=000008  Align=00001  Fill=0000
C:\@prg\cc65\lib/rp6502.lib(isupper.o):
    CODE              Offs=000378  Size=000008  Align=00001  Fill=0000
C:\@prg\cc65\lib/rp6502.lib(ladd.o):
    CODE              Offs=000380  Size=000024  Align=00001  Fill=0000
C:\@prg\cc65\lib/rp6502.lib(laddeqsp.o):
    CODE              Offs=0003A4  Size=000023  Align=00001  Fill=0000
C:\@prg\cc65\lib/rp6502.lib(lcmp.o):
    CODE              Offs=0003C7  Size=00003B  Align=00001  Fill=0000
C:\@prg\cc65\lib/rp6502.lib(ldaxi.o):
    CODE              Offs=000402  Size=00000D  Align=00001  Fill=0000
C:\@prg\cc65\lib/rp6502.lib(ldaxsp.o):
    CODE              Offs=00040F  Size=000009  Align=00001  Fill=0000
C:\@prg\cc65\lib/rp6502.lib(ldeaxysp.o):
    CODE              Offs=000418  Size=000013  Align=00001  Fill=0000
C:\@prg\cc65\lib/rp6502.lib(ldptr1sp.o):
    CODE              Offs=00042B  Size=00000C  Align=00001  Fill=0000
C:\@prg\cc65\lib/rp6502.lib(leaaxsp.o):
    CODE              Offs=000437  Size=00000C  Align=00001  Fill=0000
C:\@prg\cc65\lib/rp6502.lib(leave.o):
    CODE              Offs=000443  Size=00001B  Align=00001  Fill=0000
C:\@prg\cc65\lib/rp6502.lib(leq.o):
    CODE              Offs=00045E  Size=000006  Align=00001  Fill=0000
C:\@prg\cc65\lib/rp6502.lib(lmul.o):
    CODE              Offs=000464  Size=000059  Align=00001  Fill=0000
C:\@prg\cc65\lib/rp6502.lib(lneg.o):
    CODE              Offs=0004BD  Size=00001E  Align=00001  Fill=0000
C:\@prg\cc65\lib/rp6502.lib(lpush.o):
    CODE              Offs=0004DB  Size=00001E  Align=00001  Fill=0000
C:\@prg\cc65\lib/rp6502.lib(ludiv.o):
    CODE              Offs=0004F9  Size=000077  Align=00001  Fill=0000
C:\@prg\cc65\lib/rp6502.lib(lugt.o):
    CODE              Offs=000570  Size=000006  Align=00001  Fill=0000
C:\@prg\cc65\lib/rp6502.lib(lumod.o):
    CODE              Offs=000576  Size=000017  Align=00001  Fill=0000
C:\@prg\cc65\lib/rp6502.lib(makebool.o):
    CODE              Offs=00058D  Size=00002C  Align=00001  Fill=0000
C:\@prg\cc65\lib/rp6502.lib(open.o):
    CODE              Offs=0005B9  Size=000071  Align=00001  Fill=0000
C:\@prg\cc65\lib/rp6502.lib(pusha.o):
    CODE              Offs=00062A  Size=000016  Align=00001  Fill=0000
C:\@prg\cc65\lib/rp6502.lib(pushax.o):
    CODE              Offs=000640  Size=00001A  Align=00001  Fill=0000
C:\@prg\cc65\lib/rp6502.lib(pushwsp.o):
    CODE              Offs=00065A  Size=00001C  Align=00001  Fill=0000
C:\@prg\cc65\lib/rp6502.lib(ria.o):
    CODE              Offs=000676  Size=00004E  Align=00001  Fill=0000
C:\@prg\cc65\lib/rp6502.lib(staxsp.o):
    CODE              Offs=0006C4  Size=00000B  Align=00001  Fill=0000
C:\@prg\cc65\lib/rp6502.lib(steaxsp.o):
    CODE              Offs=0006CF  Size=000015  Align=00001  Fill=0000
C:\@prg\cc65\lib/rp6502.lib(strlen.o):
    CODE              Offs=0006E4  Size=000016  Align=00001  Fill=0000
C:\@prg\cc65\lib/rp6502.lib(strtoul.o):
    CODE              Offs=0006FA  Size=00022E  Align=00001  Fill=0000
C:\@prg\cc65\lib/rp6502.lib(subeqsp.o):
    CODE              Offs=000928  Size=000015  Align=00001  Fill=0000
C:\@prg\cc65\lib/rp6502.lib(syncfs.o):
    CODE              Offs=00093D  Size=000011  Align=00001  Fill=0000
C:\@prg\cc65\lib/rp6502.lib(zerobss.o):
    CODE              Offs=00094E  Size=000023  Align=00001  Fill=0000
C:\@prg\cc65\lib/rp6502.lib(zeropage.o):
    ZEROPAGE          Offs=000000  Size=00001A  Align=00001  Fill=0000


Segment list:
-------------
Name                   Start     End    Size  Align
----------------------------------------------------
ZEROPAGE              000000  000019  00001A  00001
STARTUP               009000  009046  000047  00001
ONCE                  009047  009054  00000E  00001
CODE                  009055  0099C5  000971  00001
RODATA                0099C6  009A5E  000099  00001
DATA                  009A5F  009A83  000025  00001
BSS                   009A84  009B83  000100  00001


Exports list by name:
---------------------
__BSS_RUN__               009A84 RLA    __BSS_SIZE__              000100 REA    
__CONSTRUCTOR_COUNT__     000001 REA    __CONSTRUCTOR_TABLE__     009053 RLA    
__DATA_LOAD__             009A5F RLA    __DATA_RUN__              009A5F RLA    
__DATA_SIZE__             000025 REA    __DESTRUCTOR_COUNT__      000000 REA    
__DESTRUCTOR_TABLE__      009A5F RLA    __RAM_SIZE__              006B00 REA    
__RAM_START__             009000 RLA    __STACKSIZE__             000200 REA    
__STARTADDR__             009000 REA    __STARTUP__               000001 REA    
___errno                  00FFED RLA    ___seterrno               0092B0 RLA    
__ctype                   0099D4 RLA    __ctypeidx                0099DF RLA    
_close                    0092E5 RLA    _errno_opt_constructor    009385  LAI   
_isdigit                  0093B5 RLA    _islower                  0093BD RLA    
_isspace                  0093C5 RLA    _isupper                  0093CD RLA    
_main                     0090DC RLA    _open                     00960E RLA    
_ria_call_int             009702 RLA    _ria_set_ax               0096FB RLA    
_strlen                   009739 RLA    _strtoul                  00974F RLA    
_syncfs                   009992 RLA    _write                    009264 RLA    
addeq0sp                  0092B9 RLA    addeqysp                  0092BB RLA    
addysp                    0092CB RLA    addysp1                   0092CA RLA    
axlong                    0092D8 RLA    axulong                   0092DE RLA    
booleq                    0095E8 RLA    boolugt                   009607 RLA    
c_sp                      000000 RLZ    copydata                  009302 RLA    
ctypemask                 00932F RLA    decax1                    00934D RLA    
decaxy                    009354 RLA    decsp4                    00935D RLA    
decsp6                    00936A RLA    donelib                   0092F6 RLA    
enter                     009377 RLA    getlop                    00955D RLA    
incsp1                    00938F RLA    incsp2                    00939D RLA    
incsp4                    0093AB RLA    incsp8                    0093B0 RLA    
initlib                   009047 RLA    initmainargs              00901B REA    
laddeqysp                 0093FB RLA    ldax0sp                   009464 RLA    
ldaxi                     009457 RLA    ldaxysp                   009466 RLA    
ldeaxysp                  00946F RLA    ldptr1ysp                 009482 RLA    
leaa0sp                   00948C RLA    leavey                    0094A2 RLA    
negeax                    009512 RLA    ptr1                      000008 RLZ    
ptr2                      00000A RLZ    ptr3                      00000C RLZ    
ptr4                      00000E RLZ    push0                     009695 RLA    
pusha                     009683 RLA    pushax                    009699 RLA    
pusheax                   009537 RLA    pushl0                    009530 RLA    
pushwysp                  0096B1 RLA    regbank                   000014 RLZ    
sreg                      000002 RLZ    staxysp                   00971B RLA    
steaxysp                  009726 RLA    subeq0sp                  00997D RLA    
subeqysp                  00997F RLA    tmp1                      000010 RLZ    
tmp2                      000011 RLZ    tmp3                      000012 RLZ    
tmp4                      000013 RLZ    tosaddeax                 0093DB RLA    
toseqeax                  0094B3 RLA    toslcmp                   00941C RLA    
tosudiveax                009552 RLA    tosugteax                 0095C5 RLA    
tosumodeax                0095CF RLA    tosumuleax                0094BD RLA    
udiv32                    009580 RLA    zerobss                   0099A3 RLA    



Exports list by value:
----------------------
c_sp                      000000 RLZ    __DESTRUCTOR_COUNT__      000000 REA    
__STARTUP__               000001 REA    __CONSTRUCTOR_COUNT__     000001 REA    
sreg                      000002 RLZ    ptr1                      000008 RLZ    
ptr2                      00000A RLZ    ptr3                      00000C RLZ    
ptr4                      00000E RLZ    tmp1                      000010 RLZ    
tmp2                      000011 RLZ    tmp3                      000012 RLZ    
tmp4                      000013 RLZ    regbank                   000014 RLZ    
__DATA_SIZE__             000025 REA    __BSS_SIZE__              000100 REA    
__STACKSIZE__             000200 REA    __RAM_SIZE__              006B00 REA    
__RAM_START__             009000 RLA    __STARTADDR__             009000 REA    
initmainargs              00901B REA    initlib                   009047 RLA    
__CONSTRUCTOR_TABLE__     009053 RLA    _main                     0090DC RLA    
_write                    009264 RLA    ___seterrno               0092B0 RLA    
addeq0sp                  0092B9 RLA    addeqysp                  0092BB RLA    
addysp1                   0092CA RLA    addysp                    0092CB RLA    
axlong                    0092D8 RLA    axulong                   0092DE RLA    
_close                    0092E5 RLA    donelib                   0092F6 RLA    
copydata                  009302 RLA    ctypemask                 00932F RLA    
decax1                    00934D RLA    decaxy                    009354 RLA    
decsp4                    00935D RLA    decsp6                    00936A RLA    
enter                     009377 RLA    _errno_opt_constructor    009385  LAI   
incsp1                    00938F RLA    incsp2                    00939D RLA    
incsp4                    0093AB RLA    incsp8                    0093B0 RLA    
_isdigit                  0093B5 RLA    _islower                  0093BD RLA    
_isspace                  0093C5 RLA    _isupper                  0093CD RLA    
tosaddeax                 0093DB RLA    laddeqysp                 0093FB RLA    
toslcmp                   00941C RLA    ldaxi                     009457 RLA    
ldax0sp                   009464 RLA    ldaxysp                   009466 RLA    
ldeaxysp                  00946F RLA    ldptr1ysp                 009482 RLA    
leaa0sp                   00948C RLA    leavey                    0094A2 RLA    
toseqeax                  0094B3 RLA    tosumuleax                0094BD RLA    
negeax                    009512 RLA    pushl0                    009530 RLA    
pusheax                   009537 RLA    tosudiveax                009552 RLA    
getlop                    00955D RLA    udiv32                    009580 RLA    
tosugteax                 0095C5 RLA    tosumodeax                0095CF RLA    
booleq                    0095E8 RLA    boolugt                   009607 RLA    
_open                     00960E RLA    pusha                     009683 RLA    
push0                     009695 RLA    pushax                    009699 RLA    
pushwysp                  0096B1 RLA    _ria_set_ax               0096FB RLA    
_ria_call_int             009702 RLA    staxysp                   00971B RLA    
steaxysp                  009726 RLA    _strlen                   009739 RLA    
_strtoul                  00974F RLA    subeq0sp                  00997D RLA    
subeqysp                  00997F RLA    _syncfs                   009992 RLA    
zerobss                   0099A3 RLA    __ctype                   0099D4 RLA    
__ctypeidx                0099DF RLA    __DATA_LOAD__             009A5F RLA    
__DATA_RUN__              009A5F RLA    __DESTRUCTOR_TABLE__      009A5F RLA    
__BSS_RUN__               009A84 RLA    ___errno                  00FFED RLA    



Imports list:
-------------
__BSS_RUN__ ([linker generated]):
    zerobss.o                 common/zerobss.s:8
__BSS_SIZE__ ([linker generated]):
    zerobss.o                 common/zerobss.s:8
__CONSTRUCTOR_COUNT__ ([linker generated]):
    condes.o                  runtime/condes.s:18
__CONSTRUCTOR_TABLE__ ([linker generated]):
    condes.o                  runtime/condes.s:18
__DATA_LOAD__ ([linker generated]):
    copydata.o                common/copydata.s:8
__DATA_RUN__ ([linker generated]):
    copydata.o                common/copydata.s:8
__DATA_SIZE__ ([linker generated]):
    copydata.o                common/copydata.s:8
__DESTRUCTOR_COUNT__ ([linker generated]):
    condes.o                  runtime/condes.s:19
__DESTRUCTOR_TABLE__ ([linker generated]):
    condes.o                  runtime/condes.s:19
__RAM_SIZE__ ([linker generated]):
    crt0.o                    rp6502/crt0.s:10
__RAM_START__ ([linker generated]):
    crt0.o                    rp6502/crt0.s:10
__STACKSIZE__ ([linker generated]):
    [linker generated]        ../ext0x9000.cfg:9
__STARTADDR__ ([linker generated]):
    [linker generated]        ../ext0x9000.cfg:9
    [linker generated]        ../ext0x9000.cfg:9
__STARTUP__ (crt0.o):
    ext-testrx.c.27020.0.o    ext-testrx.c.27020.0.s:13
    [linker generated]        ../ext0x9000.cfg:3
___errno (errno.o):
    _seterrno.o               /home/wojciech/git/WojciechGw/cc65/asminc/errno.inc:7
    open.o                    ../libwrk/rp6502/open.s:22
___seterrno (_seterrno.o):
    strtoul.o                 ../libwrk/rp6502/strtoul.s:22
__ctype (ctype.o):
    ctypemask.o               common/ctypemask.s:23
__ctypeidx (ctype.o):
    ctypemask.o               common/ctypemask.s:24
_close (close.o):
    ext-testrx.c.27020.0.o    ext-testrx.c.27020.0.s:19
_isdigit (isdigit.o):
    strtoul.o                 ../libwrk/rp6502/strtoul.s:18
_islower (islower.o):
    strtoul.o                 ../libwrk/rp6502/strtoul.s:19
_isspace (isspace.o):
    strtoul.o                 ../libwrk/rp6502/strtoul.s:20
_isupper (isupper.o):
    strtoul.o                 ../libwrk/rp6502/strtoul.s:21
_main (ext-testrx.c.27020.0.o):
    crt0.o                    rp6502/crt0.s:7
    crt0_cmd.s.27020.1.o      crt0_cmd.s:2
_open (open.o):
    ext-testrx.c.27020.0.o    ext-testrx.c.27020.0.s:18
_ria_call_int (ria.o):
    errno.o                   rp6502/errno.s:12
    syncfs.o                  ../libwrk/rp6502/syncfs.s:18
    open.o                    ../libwrk/rp6502/open.s:21
    close.o                   ../libwrk/rp6502/close.s:18
_ria_set_ax (ria.o):
    syncfs.o                  ../libwrk/rp6502/syncfs.s:17
    open.o                    ../libwrk/rp6502/open.s:20
    close.o                   ../libwrk/rp6502/close.s:17
_strlen (strlen.o):
    open.o                    ../libwrk/rp6502/open.s:23
_strtoul (strtoul.o):
    ext-testrx.c.27020.0.o    ext-testrx.c.27020.0.s:15
_syncfs (syncfs.o):
    ext-testrx.c.27020.0.o    ext-testrx.c.27020.0.s:17
_write (write_stub.c.27020.2.o):
    ext-testrx.c.27020.0.o    ext-testrx.c.27020.0.s:16
addeq0sp (addeqsp.o):
    ext-testrx.c.27020.0.o    ext-testrx.c.27020.0.s:356
    ext-testrx.c.27020.0.o    ext-testrx.c.27020.0.s:356
addeqysp (addeqsp.o):
    strtoul.o                 ../libwrk/rp6502/strtoul.s:369
    write_stub.c.27020.2.o    write_stub.c.27020.2.s:64
    ext-testrx.c.27020.0.o    ext-testrx.c.27020.0.s:356
addysp (addysp.o):
    incsp4.o                  runtime/incsp4.s:8
    leave.o                   runtime/leave.s:14
    strtoul.o                 ../libwrk/rp6502/strtoul.s:369
    incsp8.o                  runtime/incsp8.s:8
    write_stub.c.27020.2.o    write_stub.c.27020.2.s:64
addysp1 (addysp.o):
    ludiv.o                   runtime/ludiv.s:9
    lmul.o                    runtime/lmul.s:9
    ladd.o                    runtime/ladd.s:8
axlong (axlong.o):
    strtoul.o                 ../libwrk/rp6502/strtoul.s:369
    ext-testrx.c.27020.0.o    ext-testrx.c.27020.0.s:356
axulong (axlong.o):
    strtoul.o                 ../libwrk/rp6502/strtoul.s:369
booleq (makebool.o):
    leq.o                     runtime/leq.s:8
boolugt (makebool.o):
    lugt.o                    runtime/lugt.s:8
c_sp (zeropage.o):
    lcmp.o                    runtime/lcmp.s:10
    steaxsp.o                 runtime/steaxsp.s:8
    ludiv.o                   runtime/ludiv.s:10
    lmul.o                    runtime/lmul.s:10
    leave.o                   runtime/leave.s:15
    leaaxsp.o                 runtime/leaaxsp.s:8
    ldptr1sp.o                runtime/ldptr1sp.s:8
    ldeaxysp.o                runtime/ldeaxysp.s:12
    ladd.o                    runtime/ladd.s:9
    enter.o                   runtime/enter.s:8
    subeqsp.o                 runtime/subeqsp.s:8
    strtoul.o                 ../libwrk/rp6502/strtoul.s:10
    staxsp.o                  runtime/staxsp.s:8
    pushwsp.o                 runtime/pushwsp.s:8
    pushax.o                  runtime/pushax.s:8
    pusha.o                   runtime/pusha.s:8
    open.o                    ../libwrk/rp6502/open.s:10
    lpush.o                   runtime/lpush.s:13
    ldaxsp.o                  runtime/ldaxsp.s:8
    laddeqsp.o                runtime/laddeqsp.s:8
    incsp2.o                  runtime/incsp2.s:8
    incsp1.o                  runtime/incsp1.s:8
    decsp6.o                  runtime/decsp6.s:8
    decsp4.o                  runtime/decsp4.s:8
    crt0.o                    /home/wojciech/git/WojciechGw/cc65/asminc/zeropage.inc:11
    addysp.o                  runtime/addysp.s:8
    addeqsp.o                 runtime/addeqsp.s:8
    write_stub.c.27020.2.o    write_stub.c.27020.2.s:10
    ext-testrx.c.27020.0.o    ext-testrx.c.27020.0.s:10
copydata (copydata.o):
    crt0.o                    rp6502/crt0.s:12
ctypemask (ctypemask.o):
    isupper.o                 common/isupper.s:15
    isspace.o                 common/isspace.s:15
    islower.o                 common/islower.s:15
    isdigit.o                 common/isdigit.s:15
decax1 (decax1.o):
    open.o                    ../libwrk/rp6502/open.s:105
decaxy (decaxy.o):
    strtoul.o                 ../libwrk/rp6502/strtoul.s:369
decsp4 (decsp4.o):
    lpush.o                   runtime/lpush.s:12
    ext-testrx.c.27020.0.o    ext-testrx.c.27020.0.s:356
decsp6 (decsp6.o):
    strtoul.o                 ../libwrk/rp6502/strtoul.s:369
    ext-testrx.c.27020.0.o    ext-testrx.c.27020.0.s:356
donelib (condes.o):
    crt0.o                    rp6502/crt0.s:12
    crt0_cmd.s.27020.1.o      crt0_cmd.s:2
enter (enter.o):
    open.o                    ../libwrk/rp6502/open.s:105
getlop (ludiv.o):
    lumod.o                   runtime/lumod.s:9
incsp1 (incsp1.o):
    ext-testrx.c.27020.0.o    ext-testrx.c.27020.0.s:356
incsp2 (incsp2.o):
    syncfs.o                  ../libwrk/rp6502/syncfs.s:47
    close.o                   ../libwrk/rp6502/close.s:47
    ext-testrx.c.27020.0.o    ext-testrx.c.27020.0.s:356
    ext-testrx.c.27020.0.o    ext-testrx.c.27020.0.s:356
incsp4 (incsp4.o):
    lcmp.o                    runtime/lcmp.s:9
incsp8 (incsp8.o):
    ext-testrx.c.27020.0.o    ext-testrx.c.27020.0.s:356
initlib (condes.o):
    crt0.o                    rp6502/crt0.s:12
    crt0_cmd.s.27020.1.o      crt0_cmd.s:2
initmainargs (initmainargs.s.27020.3.o):
    ext-testrx.c.27020.0.o    ext-testrx.c.27020.0.s:14
laddeqysp (laddeqsp.o):
    ext-testrx.c.27020.0.o    ext-testrx.c.27020.0.s:356
ldax0sp (ldaxsp.o):
    syncfs.o                  ../libwrk/rp6502/syncfs.s:47
    open.o                    ../libwrk/rp6502/open.s:105
    close.o                   ../libwrk/rp6502/close.s:47
ldaxi (ldaxi.o):
    open.o                    ../libwrk/rp6502/open.s:105
ldaxysp (ldaxsp.o):
    strtoul.o                 ../libwrk/rp6502/strtoul.s:369
ldeaxysp (ldeaxysp.o):
    strtoul.o                 ../libwrk/rp6502/strtoul.s:369
ldptr1ysp (ldptr1sp.o):
    strtoul.o                 ../libwrk/rp6502/strtoul.s:369
leaa0sp (leaaxsp.o):
    open.o                    ../libwrk/rp6502/open.s:105
leavey (leave.o):
    open.o                    ../libwrk/rp6502/open.s:105
negeax (lneg.o):
    strtoul.o                 ../libwrk/rp6502/strtoul.s:369
ptr1 (zeropage.o):
    lcmp.o                    runtime/lcmp.s:10
    ludiv.o                   runtime/ludiv.s:10
    lmul.o                    runtime/lmul.s:10
    ldptr1sp.o                runtime/ldptr1sp.s:8
    ldaxi.o                   runtime/ldaxi.s:8
    copydata.o                common/copydata.s:9
    zerobss.o                 common/zerobss.s:9
    strtoul.o                 ../libwrk/rp6502/strtoul.s:11
    open.o                    ../libwrk/rp6502/open.s:11
    write_stub.c.27020.2.o    write_stub.c.27020.2.s:11
    ext-testrx.c.27020.0.o    ext-testrx.c.27020.0.s:11
ptr2 (zeropage.o):
    lumod.o                   runtime/lumod.s:10
    ludiv.o                   runtime/ludiv.s:10
    copydata.o                common/copydata.s:9
ptr3 (zeropage.o):
    ludiv.o                   runtime/ludiv.s:10
    lmul.o                    runtime/lmul.s:10
ptr4 (zeropage.o):
    ludiv.o                   runtime/ludiv.s:10
    lmul.o                    runtime/lmul.s:10
    strlen.o                  common/strlen.s:12
push0 (pushax.o):
    strtoul.o                 ../libwrk/rp6502/strtoul.s:369
pusha (pusha.o):
    strtoul.o                 ../libwrk/rp6502/strtoul.s:369
    ext-testrx.c.27020.0.o    ext-testrx.c.27020.0.s:356
pushax (pushax.o):
    syncfs.o                  ../libwrk/rp6502/syncfs.s:47
    strtoul.o                 ../libwrk/rp6502/strtoul.s:369
    open.o                    ../libwrk/rp6502/open.s:105
    close.o                   ../libwrk/rp6502/close.s:47
    write_stub.c.27020.2.o    write_stub.c.27020.2.s:64
    ext-testrx.c.27020.0.o    ext-testrx.c.27020.0.s:356
    ext-testrx.c.27020.0.o    ext-testrx.c.27020.0.s:356
    ext-testrx.c.27020.0.o    ext-testrx.c.27020.0.s:356
pusheax (lpush.o):
    strtoul.o                 ../libwrk/rp6502/strtoul.s:369
pushl0 (lpush.o):
    strtoul.o                 ../libwrk/rp6502/strtoul.s:369
    ext-testrx.c.27020.0.o    ext-testrx.c.27020.0.s:356
pushwysp (pushwsp.o):
    write_stub.c.27020.2.o    write_stub.c.27020.2.s:64
    ext-testrx.c.27020.0.o    ext-testrx.c.27020.0.s:356
regbank (zeropage.o):
    strtoul.o                 ../libwrk/rp6502/strtoul.s:10
sreg (zeropage.o):
    lcmp.o                    runtime/lcmp.s:10
    steaxsp.o                 runtime/steaxsp.s:8
    lumod.o                   runtime/lumod.s:10
    ludiv.o                   runtime/ludiv.s:10
    lneg.o                    runtime/lneg.s:11
    lmul.o                    runtime/lmul.s:10
    ldeaxysp.o                runtime/ldeaxysp.s:12
    ladd.o                    runtime/ladd.s:9
    strtoul.o                 ../libwrk/rp6502/strtoul.s:10
    ria.o                     rp6502/ria.s:13
    lpush.o                   runtime/lpush.s:13
    laddeqsp.o                runtime/laddeqsp.s:8
    axlong.o                  runtime/axlong.s:9
    ext-testrx.c.27020.0.o    ext-testrx.c.27020.0.s:10
staxysp (staxsp.o):
    strtoul.o                 ../libwrk/rp6502/strtoul.s:369
    ext-testrx.c.27020.0.o    ext-testrx.c.27020.0.s:356
steaxysp (steaxsp.o):
    strtoul.o                 ../libwrk/rp6502/strtoul.s:369
subeq0sp (subeqsp.o):
    open.o                    ../libwrk/rp6502/open.s:105
    write_stub.c.27020.2.o    write_stub.c.27020.2.s:64
subeqysp (subeqsp.o):
    ext-testrx.c.27020.0.o    ext-testrx.c.27020.0.s:356
    ext-testrx.c.27020.0.o    ext-testrx.c.27020.0.s:356
tmp1 (zeropage.o):
    ladd.o                    runtime/ladd.s:9
    decaxy.o                  runtime/decaxy.s:8
    copydata.o                common/copydata.s:9
    strtoul.o                 ../libwrk/rp6502/strtoul.s:11
tmp2 (zeropage.o):
    lmul.o                    runtime/lmul.s:10
tmp3 (zeropage.o):
    lumod.o                   runtime/lumod.s:10
    ludiv.o                   runtime/ludiv.s:10
    lmul.o                    runtime/lmul.s:10
tmp4 (zeropage.o):
    lumod.o                   runtime/lumod.s:10
    ludiv.o                   runtime/ludiv.s:10
    lmul.o                    runtime/lmul.s:10
tosaddeax (ladd.o):
    strtoul.o                 ../libwrk/rp6502/strtoul.s:369
toseqeax (leq.o):
    strtoul.o                 ../libwrk/rp6502/strtoul.s:369
toslcmp (lcmp.o):
    lugt.o                    runtime/lugt.s:8
    leq.o                     runtime/leq.s:8
tosudiveax (ludiv.o):
    strtoul.o                 ../libwrk/rp6502/strtoul.s:369
tosugteax (lugt.o):
    strtoul.o                 ../libwrk/rp6502/strtoul.s:369
tosumodeax (lumod.o):
    strtoul.o                 ../libwrk/rp6502/strtoul.s:369
tosumuleax (lmul.o):
    strtoul.o                 ../libwrk/rp6502/strtoul.s:369
udiv32 (ludiv.o):
    lumod.o                   runtime/lumod.s:9
zerobss (zerobss.o):
    crt0.o                    rp6502/crt0.s:12

