Modules list:
-------------
ext-ss-charnoise.c.17132.0.o:
    CODE              Offs=000000  Size=000629  Align=00001  Fill=0000
    RODATA            Offs=000000  Size=000117  Align=00001  Fill=0000
    BSS               Offs=000000  Size=000022  Align=00001  Fill=0000
    DATA              Offs=000000  Size=000068  Align=00001  Fill=0000
crt0_cmd.s.17132.1.o:
    STARTUP           Offs=000000  Size=00001B  Align=00001  Fill=0000
write_stub.c.17132.2.o:
    CODE              Offs=000629  Size=00004C  Align=00001  Fill=0000
initmainargs.s.17132.3.o:
    STARTUP           Offs=00001B  Size=000001  Align=00001  Fill=0000
C:\@prg\cc65\lib/rp6502.lib(_directerrno.o):
    CODE              Offs=000675  Size=000009  Align=00001  Fill=0000
C:\@prg\cc65\lib/rp6502.lib(_file.o):
    DATA              Offs=000068  Size=00001E  Align=00001  Fill=0000
C:\@prg\cc65\lib/rp6502.lib(_hextab.o):
    RODATA            Offs=000117  Size=000010  Align=00001  Fill=0000
C:\@prg\cc65\lib/rp6502.lib(_longminstr.o):
    RODATA            Offs=000127  Size=00000C  Align=00001  Fill=0000
C:\@prg\cc65\lib/rp6502.lib(_oserror.o):
    BSS               Offs=000022  Size=000001  Align=00001  Fill=0000
C:\@prg\cc65\lib/rp6502.lib(_printf.o):
    CODE              Offs=00067E  Size=0003A1  Align=00001  Fill=0000
    BSS               Offs=000023  Size=00002B  Align=00001  Fill=0000
    DATA              Offs=000086  Size=000003  Align=00001  Fill=0000
C:\@prg\cc65\lib/rp6502.lib(_seterrno.o):
    CODE              Offs=000A1F  Size=000009  Align=00001  Fill=0000
C:\@prg\cc65\lib/rp6502.lib(addeqsp.o):
    CODE              Offs=000A28  Size=000011  Align=00001  Fill=0000
C:\@prg\cc65\lib/rp6502.lib(addysp.o):
    CODE              Offs=000A39  Size=00000E  Align=00001  Fill=0000
C:\@prg\cc65\lib/rp6502.lib(aslax3.o):
    CODE              Offs=000A47  Size=00000E  Align=00001  Fill=0000
C:\@prg\cc65\lib/rp6502.lib(aslax4.o):
    CODE              Offs=000A55  Size=000011  Align=00001  Fill=0000
C:\@prg\cc65\lib/rp6502.lib(axlong.o):
    CODE              Offs=000A66  Size=00000D  Align=00001  Fill=0000
C:\@prg\cc65\lib/rp6502.lib(callmain.o):
    CODE              Offs=000A73  Size=000017  Align=00001  Fill=0000
    DATA              Offs=000089  Size=000004  Align=00001  Fill=0000
C:\@prg\cc65\lib/rp6502.lib(close.o):
    CODE              Offs=000A8A  Size=000011  Align=00001  Fill=0000
C:\@prg\cc65\lib/rp6502.lib(condes.o):
    CODE              Offs=000A9B  Size=00000C  Align=00001  Fill=0000
    DATA              Offs=00008D  Size=000025  Align=00001  Fill=0000
    ONCE              Offs=000000  Size=00000C  Align=00001  Fill=0000
C:\@prg\cc65\lib/rp6502.lib(copydata.o):
    CODE              Offs=000AA7  Size=00002D  Align=00001  Fill=0000
C:\@prg\cc65\lib/rp6502.lib(crt0.o):
    STARTUP           Offs=00001C  Size=00002B  Align=00001  Fill=0000
C:\@prg\cc65\lib/rp6502.lib(ctype.o):
    RODATA            Offs=000133  Size=00008B  Align=00001  Fill=0000
C:\@prg\cc65\lib/rp6502.lib(ctypemask.o):
    CODE              Offs=000AD4  Size=00001E  Align=00001  Fill=0000
C:\@prg\cc65\lib/rp6502.lib(decax1.o):
    CODE              Offs=000AF2  Size=000007  Align=00001  Fill=0000
C:\@prg\cc65\lib/rp6502.lib(decsp2.o):
    CODE              Offs=000AF9  Size=00000D  Align=00001  Fill=0000
C:\@prg\cc65\lib/rp6502.lib(decsp3.o):
    CODE              Offs=000B06  Size=00000D  Align=00001  Fill=0000
C:\@prg\cc65\lib/rp6502.lib(decsp4.o):
    CODE              Offs=000B13  Size=00000D  Align=00001  Fill=0000
C:\@prg\cc65\lib/rp6502.lib(decsp6.o):
    CODE              Offs=000B20  Size=00000D  Align=00001  Fill=0000
C:\@prg\cc65\lib/rp6502.lib(enter.o):
    CODE              Offs=000B2D  Size=00000E  Align=00001  Fill=0000
C:\@prg\cc65\lib/rp6502.lib(errno.o):
    CODE              Offs=000B3B  Size=00000F  Align=00001  Fill=0000
C:\@prg\cc65\lib/rp6502.lib(fwrite.o):
    CODE              Offs=000B4A  Size=000077  Align=00001  Fill=0000
    BSS               Offs=00004E  Size=000002  Align=00001  Fill=0000
C:\@prg\cc65\lib/rp6502.lib(incsp1.o):
    CODE              Offs=000BC1  Size=000007  Align=00001  Fill=0000
C:\@prg\cc65\lib/rp6502.lib(incsp2.o):
    CODE              Offs=000BC8  Size=000015  Align=00001  Fill=0000
C:\@prg\cc65\lib/rp6502.lib(incsp4.o):
    CODE              Offs=000BDD  Size=000005  Align=00001  Fill=0000
C:\@prg\cc65\lib/rp6502.lib(incsp5.o):
    CODE              Offs=000BE2  Size=000005  Align=00001  Fill=0000
C:\@prg\cc65\lib/rp6502.lib(incsp6.o):
    CODE              Offs=000BE7  Size=000005  Align=00001  Fill=0000
C:\@prg\cc65\lib/rp6502.lib(incsp8.o):
    CODE              Offs=000BEC  Size=000005  Align=00001  Fill=0000
C:\@prg\cc65\lib/rp6502.lib(ldaxi.o):
    CODE              Offs=000BF1  Size=00000D  Align=00001  Fill=0000
C:\@prg\cc65\lib/rp6502.lib(ldaxsp.o):
    CODE              Offs=000BFE  Size=000009  Align=00001  Fill=0000
C:\@prg\cc65\lib/rp6502.lib(ldeaxysp.o):
    CODE              Offs=000C07  Size=000013  Align=00001  Fill=0000
C:\@prg\cc65\lib/rp6502.lib(leaaxsp.o):
    CODE              Offs=000C1A  Size=00000C  Align=00001  Fill=0000
C:\@prg\cc65\lib/rp6502.lib(leave.o):
    CODE              Offs=000C26  Size=00001B  Align=00001  Fill=0000
C:\@prg\cc65\lib/rp6502.lib(lneg.o):
    CODE              Offs=000C41  Size=00001E  Align=00001  Fill=0000
C:\@prg\cc65\lib/rp6502.lib(lpush.o):
    CODE              Offs=000C5F  Size=00001E  Align=00001  Fill=0000
C:\@prg\cc65\lib/rp6502.lib(lseek.o):
    CODE              Offs=000C7D  Size=000020  Align=00001  Fill=0000
C:\@prg\cc65\lib/rp6502.lib(ltoa.o):
    CODE              Offs=000C9D  Size=000093  Align=00001  Fill=0000
C:\@prg\cc65\lib/rp6502.lib(memcpy.o):
    CODE              Offs=000D30  Size=00003C  Align=00001  Fill=0000
C:\@prg\cc65\lib/rp6502.lib(mod.o):
    CODE              Offs=000D6C  Size=000011  Align=00001  Fill=0000
C:\@prg\cc65\lib/rp6502.lib(mul.o):
    CODE              Offs=000D7D  Size=000045  Align=00001  Fill=0000
C:\@prg\cc65\lib/rp6502.lib(mul8.o):
    CODE              Offs=000DC2  Size=00003A  Align=00001  Fill=0000
C:\@prg\cc65\lib/rp6502.lib(negabs.o):
    CODE              Offs=000DFC  Size=000012  Align=00001  Fill=0000
C:\@prg\cc65\lib/rp6502.lib(open.o):
    CODE              Offs=000E0E  Size=000071  Align=00001  Fill=0000
C:\@prg\cc65\lib/rp6502.lib(popptr1.o):
    CODE              Offs=000E7F  Size=00000E  Align=00001  Fill=0000
C:\@prg\cc65\lib/rp6502.lib(printf.o):
    CODE              Offs=000E8D  Size=000033  Align=00001  Fill=0000
    BSS               Offs=000050  Size=000001  Align=00001  Fill=0000
C:\@prg\cc65\lib/rp6502.lib(push1.o):
    CODE              Offs=000EC0  Size=000005  Align=00001  Fill=0000
C:\@prg\cc65\lib/rp6502.lib(pusha.o):
    CODE              Offs=000EC5  Size=000016  Align=00001  Fill=0000
C:\@prg\cc65\lib/rp6502.lib(pushax.o):
    CODE              Offs=000EDB  Size=00001A  Align=00001  Fill=0000
C:\@prg\cc65\lib/rp6502.lib(pushwsp.o):
    CODE              Offs=000EF5  Size=00001C  Align=00001  Fill=0000
C:\@prg\cc65\lib/rp6502.lib(rand.o):
    CODE              Offs=000F11  Size=000034  Align=00001  Fill=0000
    DATA              Offs=0000B2  Size=000004  Align=00001  Fill=0000
C:\@prg\cc65\lib/rp6502.lib(randomize.o):
    CODE              Offs=000F45  Size=000008  Align=00001  Fill=0000
C:\@prg\cc65\lib/rp6502.lib(read_xram.o):
    CODE              Offs=000F4D  Size=000021  Align=00001  Fill=0000
C:\@prg\cc65\lib/rp6502.lib(ria.o):
    CODE              Offs=000F6E  Size=00004E  Align=00001  Fill=0000
C:\@prg\cc65\lib/rp6502.lib(ria_attr.o):
    CODE              Offs=000FBC  Size=000028  Align=00001  Fill=0000
C:\@prg\cc65\lib/rp6502.lib(shelp.o):
    CODE              Offs=000FE4  Size=000020  Align=00001  Fill=0000
C:\@prg\cc65\lib/rp6502.lib(sprintf.o):
    CODE              Offs=001004  Size=00002B  Align=00001  Fill=0000
    BSS               Offs=000051  Size=000001  Align=00001  Fill=0000
C:\@prg\cc65\lib/rp6502.lib(staxsp.o):
    CODE              Offs=00102F  Size=00000B  Align=00001  Fill=0000
C:\@prg\cc65\lib/rp6502.lib(strlen.o):
    CODE              Offs=00103A  Size=000016  Align=00001  Fill=0000
C:\@prg\cc65\lib/rp6502.lib(strlower.o):
    CODE              Offs=001050  Size=000027  Align=00001  Fill=0000
C:\@prg\cc65\lib/rp6502.lib(subeqsp.o):
    CODE              Offs=001077  Size=000015  Align=00001  Fill=0000
C:\@prg\cc65\lib/rp6502.lib(udiv.o):
    CODE              Offs=00108C  Size=00004F  Align=00001  Fill=0000
C:\@prg\cc65\lib/rp6502.lib(vfprintf.o):
    CODE              Offs=0010DB  Size=000060  Align=00001  Fill=0000
    DATA              Offs=0000B6  Size=000008  Align=00001  Fill=0000
C:\@prg\cc65\lib/rp6502.lib(vsnprintf.o):
    CODE              Offs=00113B  Size=0000DA  Align=00001  Fill=0000
    DATA              Offs=0000BE  Size=000008  Align=00001  Fill=0000
C:\@prg\cc65\lib/rp6502.lib(vsprintf.o):
    CODE              Offs=001215  Size=000012  Align=00001  Fill=0000
C:\@prg\cc65\lib/rp6502.lib(xreg.o):
    CODE              Offs=001227  Size=000015  Align=00001  Fill=0000
C:\@prg\cc65\lib/rp6502.lib(zerobss.o):
    CODE              Offs=00123C  Size=000023  Align=00001  Fill=0000
C:\@prg\cc65\lib/rp6502.lib(zeropage.o):
    ZEROPAGE          Offs=000000  Size=00001A  Align=00001  Fill=0000


Segment list:
-------------
Name                   Start     End    Size  Align
----------------------------------------------------
ZEROPAGE              000000  000019  00001A  00001
STARTUP               007800  007846  000047  00001
ONCE                  007847  007854  00000E  00001
CODE                  007855  008AB3  00125F  00001
RODATA                008AB4  008C71  0001BE  00001
DATA                  008C72  008D37  0000C6  00001
BSS                   008D38  008D89  000052  00001


Exports list by name:
---------------------
__BSS_RUN__               008D38 RLA    __BSS_SIZE__              000052 REA    
__CONSTRUCTOR_COUNT__     000001 REA    __CONSTRUCTOR_TABLE__     007853 RLA    
__DATA_LOAD__             008C72 RLA    __DATA_RUN__              008C72 RLA    
__DATA_SIZE__             0000C6 REA    __DESTRUCTOR_COUNT__      000000 REA    
__DESTRUCTOR_TABLE__      008C72 RLA    __RAM_SIZE__              008500 REA    
__RAM_START__             007800 RLA    __STACKSIZE__             000200 REA    
__STARTADDR__             007800 REA    __STARTUP__               000001 REA    
___directerrno            007ECA RLA    ___errno                  00FFED RLA    
___oserror                008D5A RLA    ___randomize              00879A RLA    
___seterrno               008274 RLA    __ctype                   008BE7 RLA    
__ctypeidx                008BF2 RLA    __hextab                  008BCB RLA    
__longminstr              008BDB RLA    __printf                  007FC4 RLA    
_close                    0082DF RLA    _errno_opt_constructor    008390  LAI   
_fwrite                   00839F RLA    _lseek                    0084D2 RLA    
_ltoa                     00850A RLA    _main                     007D64 RLA    
_memcpy                   008585 RLA    _open                     008663 RLA    
_printf                   0086E2 RLA    _rand                     008772 RLA    
_read_xram                0087A2 RLA    _ria_attr_get             008811 RLA    
_ria_call_int             0087FA RLA    _ria_call_long            008800 RLA    
_ria_push_int             0087CD RLA    _ria_push_long            0087C3 RLA    
_ria_set_ax               0087F3 RLA    _sprintf                  008859 RLA    
_srand                    008766 RLA    _stdout                   008CF4 RLA    
_strlen                   00888F RLA    _strlower                 0088A5 RLA    
_ultoa                    008549 RLA    _vfprintf                 008967 RLA    
_vsprintf                 008A6A RLA    _write                    007E7E RLA    
_xreg                     008A7C RLA    addeq0sp                  00827D RLA    
addeqysp                  00827F RLA    addysp                    00828F RLA    
axlong                    0082BB RLA    axulong                   0082C1 RLA    
c_sp                      000000 RLZ    callmain                  0082C8 RLA    
copydata                  0082FC RLA    ctypemaskdirect           00832D RLA    
decax1                    008347 RLA    decsp2                    00834E RLA    
decsp3                    00835B RLA    decsp4                    008368 RLA    
decsp6                    008375 RLA    donelib                   0082F0 RLA    
enter                     008382 RLA    incsp1                    008416 RLA    
incsp2                    008424 RLA    incsp4                    008432 RLA    
incsp5                    008437 RLA    incsp6                    00843C RLA    
incsp8                    008441 RLA    initlib                   007847 RLA    
initmainargs              00781B REA    ldax0sp                   008453 RLA    
ldaxi                     008446 RLA    ldaxysp                   008455 RLA    
ldeaxysp                  00845E RLA    leaa0sp                   00846F RLA    
leavey                    008485 RLA    mul8x16                   008619 RLA    
mul8x16a                  008623 RLA    negax                     008655 RLA    
negeax                    008496 RLA    popax                     00841D RLA    
popptr1                   0086D4 RLA    popsargsudiv16            008839 RLA    
ptr1                      000008 RLZ    ptr2                      00000A RLZ    
ptr3                      00000C RLZ    ptr4                      00000E RLZ    
push0                     008730 RLA    push1                     008715 RLA    
pusha                     00871E RLA    pusha0                    008732 RLA    
pushax                    008734 RLA    pusheax                   0084BB RLA    
pushw0sp                  00874A RLA    pushwysp                  00874C RLA    
regbank                   000014 RLZ    shlax3                    00829C RLA    
shlax4                    0082AA RLA    sreg                      000002 RLZ    
stax0sp                   008884 RLA    staxysp                   008886 RLA    
subeq0sp                  0088CC RLA    tmp1                      000010 RLZ    
tmp2                      000011 RLZ    tosmoda0                  0085C1 RLA    
tosudivax                 0088E3 RLA    tosumula0                 008617 RLA    
tosumulax                 0085D2 RLA    udiv16                    0088F2 RLA    
vsnprintf                 008993 RLA    zerobss                   008A91 RLA    



Exports list by value:
----------------------
__DESTRUCTOR_COUNT__      000000 REA    c_sp                      000000 RLZ    
__CONSTRUCTOR_COUNT__     000001 REA    __STARTUP__               000001 REA    
sreg                      000002 RLZ    ptr1                      000008 RLZ    
ptr2                      00000A RLZ    ptr3                      00000C RLZ    
ptr4                      00000E RLZ    tmp1                      000010 RLZ    
tmp2                      000011 RLZ    regbank                   000014 RLZ    
__BSS_SIZE__              000052 REA    __DATA_SIZE__             0000C6 REA    
__STACKSIZE__             000200 REA    __RAM_START__             007800 RLA    
__STARTADDR__             007800 REA    initmainargs              00781B REA    
initlib                   007847 RLA    __CONSTRUCTOR_TABLE__     007853 RLA    
_main                     007D64 RLA    _write                    007E7E RLA    
___directerrno            007ECA RLA    __printf                  007FC4 RLA    
___seterrno               008274 RLA    addeq0sp                  00827D RLA    
addeqysp                  00827F RLA    addysp                    00828F RLA    
shlax3                    00829C RLA    shlax4                    0082AA RLA    
axlong                    0082BB RLA    axulong                   0082C1 RLA    
callmain                  0082C8 RLA    _close                    0082DF RLA    
donelib                   0082F0 RLA    copydata                  0082FC RLA    
ctypemaskdirect           00832D RLA    decax1                    008347 RLA    
decsp2                    00834E RLA    decsp3                    00835B RLA    
decsp4                    008368 RLA    decsp6                    008375 RLA    
enter                     008382 RLA    _errno_opt_constructor    008390  LAI   
_fwrite                   00839F RLA    incsp1                    008416 RLA    
popax                     00841D RLA    incsp2                    008424 RLA    
incsp4                    008432 RLA    incsp5                    008437 RLA    
incsp6                    00843C RLA    incsp8                    008441 RLA    
ldaxi                     008446 RLA    ldax0sp                   008453 RLA    
ldaxysp                   008455 RLA    ldeaxysp                  00845E RLA    
leaa0sp                   00846F RLA    leavey                    008485 RLA    
negeax                    008496 RLA    pusheax                   0084BB RLA    
_lseek                    0084D2 RLA    __RAM_SIZE__              008500 REA    
_ltoa                     00850A RLA    _ultoa                    008549 RLA    
_memcpy                   008585 RLA    tosmoda0                  0085C1 RLA    
tosumulax                 0085D2 RLA    tosumula0                 008617 RLA    
mul8x16                   008619 RLA    mul8x16a                  008623 RLA    
negax                     008655 RLA    _open                     008663 RLA    
popptr1                   0086D4 RLA    _printf                   0086E2 RLA    
push1                     008715 RLA    pusha                     00871E RLA    
push0                     008730 RLA    pusha0                    008732 RLA    
pushax                    008734 RLA    pushw0sp                  00874A RLA    
pushwysp                  00874C RLA    _srand                    008766 RLA    
_rand                     008772 RLA    ___randomize              00879A RLA    
_read_xram                0087A2 RLA    _ria_push_long            0087C3 RLA    
_ria_push_int             0087CD RLA    _ria_set_ax               0087F3 RLA    
_ria_call_int             0087FA RLA    _ria_call_long            008800 RLA    
_ria_attr_get             008811 RLA    popsargsudiv16            008839 RLA    
_sprintf                  008859 RLA    stax0sp                   008884 RLA    
staxysp                   008886 RLA    _strlen                   00888F RLA    
_strlower                 0088A5 RLA    subeq0sp                  0088CC RLA    
tosudivax                 0088E3 RLA    udiv16                    0088F2 RLA    
_vfprintf                 008967 RLA    vsnprintf                 008993 RLA    
_vsprintf                 008A6A RLA    _xreg                     008A7C RLA    
zerobss                   008A91 RLA    __hextab                  008BCB RLA    
__longminstr              008BDB RLA    __ctype                   008BE7 RLA    
__ctypeidx                008BF2 RLA    __DATA_RUN__              008C72 RLA    
__DATA_LOAD__             008C72 RLA    __DESTRUCTOR_TABLE__      008C72 RLA    
_stdout                   008CF4 RLA    __BSS_RUN__               008D38 RLA    
___oserror                008D5A RLA    ___errno                  00FFED RLA    



Imports list:
-------------
__BSS_RUN__ ([linker generated]):
    zerobss.o                 common/zerobss.s:8
__BSS_SIZE__ ([linker generated]):
    zerobss.o                 common/zerobss.s:8
__CONSTRUCTOR_COUNT__ ([linker generated]):
    condes.o                  runtime/condes.s:18
__CONSTRUCTOR_TABLE__ ([linker generated]):
    condes.o                  runtime/condes.s:18
__DATA_LOAD__ ([linker generated]):
    copydata.o                common/copydata.s:8
__DATA_RUN__ ([linker generated]):
    copydata.o                common/copydata.s:8
__DATA_SIZE__ ([linker generated]):
    copydata.o                common/copydata.s:8
__DESTRUCTOR_COUNT__ ([linker generated]):
    condes.o                  runtime/condes.s:19
__DESTRUCTOR_TABLE__ ([linker generated]):
    condes.o                  runtime/condes.s:19
__RAM_SIZE__ ([linker generated]):
    crt0.o                    rp6502/crt0.s:10
__RAM_START__ ([linker generated]):
    crt0.o                    rp6502/crt0.s:10
__STACKSIZE__ ([linker generated]):
    [linker generated]        cfg/ext0x7800.cfg:9
__STARTADDR__ ([linker generated]):
    [linker generated]        cfg/ext0x7800.cfg:9
    [linker generated]        cfg/ext0x7800.cfg:9
__STARTUP__ (crt0.o):
    ext-ss-charnoise.c.17132.0.o ext-ss-charnoise.c.17132.0.s:13
    [linker generated]        cfg/ext0x7800.cfg:3
___directerrno (_directerrno.o):
    vsnprintf.o               /home/wojciech/git/WojciechGw/cc65/asminc/errno.inc:10
___errno (errno.o):
    _seterrno.o               /home/wojciech/git/WojciechGw/cc65/asminc/errno.inc:7
    open.o                    ../libwrk/rp6502/open.s:22
___oserror (_oserror.o):
    _directerrno.o            /home/wojciech/git/WojciechGw/cc65/asminc/errno.inc:7
___randomize (randomize.o):
    ext-ss-charnoise.c.17132.0.o ext-ss-charnoise.c.17132.0.s:20
___seterrno (_seterrno.o):
    _directerrno.o            /home/wojciech/git/WojciechGw/cc65/asminc/errno.inc:9
    fwrite.o                  /home/wojciech/git/WojciechGw/cc65/asminc/errno.inc:9
__ctype (ctype.o):
    ctypemask.o               common/ctypemask.s:23
__ctypeidx (ctype.o):
    ctypemask.o               common/ctypemask.s:24
__hextab (_hextab.o):
    ltoa.o                    common/ltoa.s:10
__longminstr (_longminstr.o):
    ltoa.o                    common/ltoa.s:10
__printf (_printf.o):
    vsnprintf.o               common/vsnprintf.s:10
    vfprintf.o                common/vfprintf.s:10
_close (close.o):
    ext-ss-charnoise.c.17132.0.o ext-ss-charnoise.c.17132.0.s:23
_fwrite (fwrite.o):
    vfprintf.o                common/vfprintf.s:10
_lseek (lseek.o):
    ext-ss-charnoise.c.17132.0.o ext-ss-charnoise.c.17132.0.s:24
_ltoa (ltoa.o):
    _printf.o                 common/_printf.s:12
_main (ext-ss-charnoise.c.17132.0.o):
    callmain.o                runtime/callmain.s:11
    crt0_cmd.s.17132.1.o      crt0_cmd.s:2
_memcpy (memcpy.o):
    vsnprintf.o               common/vsnprintf.s:10
_open (open.o):
    ext-ss-charnoise.c.17132.0.o ext-ss-charnoise.c.17132.0.s:22
_printf (printf.o):
    ext-ss-charnoise.c.17132.0.o ext-ss-charnoise.c.17132.0.s:17
_rand (rand.o):
    ext-ss-charnoise.c.17132.0.o ext-ss-charnoise.c.17132.0.s:19
_read_xram (read_xram.o):
    ext-ss-charnoise.c.17132.0.o ext-ss-charnoise.c.17132.0.s:16
_ria_attr_get (ria_attr.o):
    randomize.o               ../libwrk/rp6502/randomize.s:17
_ria_call_int (ria.o):
    errno.o                   rp6502/errno.s:12
    xreg.o                    rp6502/xreg.s:9
    ria_attr.o                ../libwrk/rp6502/ria_attr.s:17
    read_xram.o               ../libwrk/rp6502/read_xram.s:18
    open.o                    ../libwrk/rp6502/open.s:21
    close.o                   ../libwrk/rp6502/close.s:18
_ria_call_long (ria.o):
    ria_attr.o                ../libwrk/rp6502/ria_attr.s:18
    lseek.o                   ../libwrk/rp6502/lseek.s:19
_ria_push_int (ria.o):
    read_xram.o               ../libwrk/rp6502/read_xram.s:16
_ria_push_long (ria.o):
    ria_attr.o                ../libwrk/rp6502/ria_attr.s:16
    lseek.o                   ../libwrk/rp6502/lseek.s:17
_ria_set_ax (ria.o):
    read_xram.o               ../libwrk/rp6502/read_xram.s:17
    open.o                    ../libwrk/rp6502/open.s:20
    lseek.o                   ../libwrk/rp6502/lseek.s:18
    close.o                   ../libwrk/rp6502/close.s:17
_sprintf (sprintf.o):
    ext-ss-charnoise.c.17132.0.o ext-ss-charnoise.c.17132.0.s:18
_srand (rand.o):
    randomize.o               ../libwrk/rp6502/randomize.s:18
_stdout (_file.o):
    printf.o                  common/printf.s:8
_strlen (strlen.o):
    _printf.o                 common/_printf.s:13
    open.o                    ../libwrk/rp6502/open.s:23
_strlower (strlower.o):
    _printf.o                 common/_printf.s:13
_ultoa (ltoa.o):
    _printf.o                 common/_printf.s:12
_vfprintf (vfprintf.o):
    printf.o                  common/printf.s:8
_vsprintf (vsprintf.o):
    sprintf.o                 common/sprintf.s:8
_write (write_stub.c.17132.2.o):
    fwrite.o                  common/fwrite.s:10
_xreg (xreg.o):
    ext-ss-charnoise.c.17132.0.o ext-ss-charnoise.c.17132.0.s:15
addeq0sp (addeqsp.o):
    ext-ss-charnoise.c.17132.0.o ext-ss-charnoise.c.17132.0.s:1000
addeqysp (addeqsp.o):
    write_stub.c.17132.2.o    write_stub.c.17132.2.s:64
addysp (addysp.o):
    leave.o                   runtime/leave.s:14
    incsp6.o                  runtime/incsp6.s:8
    incsp5.o                  runtime/incsp5.s:8
    fwrite.o                  common/fwrite.s:11
    xreg.o                    rp6502/xreg.s:9
    sprintf.o                 common/sprintf.s:8
    printf.o                  common/printf.s:8
    incsp8.o                  runtime/incsp8.s:8
    incsp4.o                  runtime/incsp4.s:8
    write_stub.c.17132.2.o    write_stub.c.17132.2.s:64
axlong (axlong.o):
    _printf.o                 common/_printf.s:11
axulong (axlong.o):
    _printf.o                 common/_printf.s:11
c_sp (zeropage.o):
    memcpy.o                  common/memcpy.s:15
    vsnprintf.o               common/vsnprintf.s:11
    lpush.o                   runtime/lpush.s:13
    leave.o                   runtime/leave.s:15
    leaaxsp.o                 runtime/leaaxsp.s:8
    ldeaxysp.o                runtime/ldeaxysp.s:12
    enter.o                   runtime/enter.s:8
    _printf.o                 /home/wojciech/git/WojciechGw/cc65/asminc/zeropage.inc:11
    xreg.o                    rp6502/xreg.s:8
    vfprintf.o                common/vfprintf.s:11
    subeqsp.o                 runtime/subeqsp.s:8
    staxsp.o                  runtime/staxsp.s:8
    sprintf.o                 common/sprintf.s:9
    ria_attr.o                ../libwrk/rp6502/ria_attr.s:10
    pushwsp.o                 runtime/pushwsp.s:8
    pushax.o                  runtime/pushax.s:8
    pusha.o                   runtime/pusha.s:8
    printf.o                  common/printf.s:9
    popptr1.o                 runtime/popptr1.s:9
    open.o                    ../libwrk/rp6502/open.s:10
    lseek.o                   ../libwrk/rp6502/lseek.s:10
    ldaxsp.o                  runtime/ldaxsp.s:8
    incsp2.o                  runtime/incsp2.s:8
    incsp1.o                  runtime/incsp1.s:8
    decsp6.o                  runtime/decsp6.s:8
    decsp4.o                  runtime/decsp4.s:8
    decsp3.o                  runtime/decsp3.s:8
    decsp2.o                  runtime/decsp2.s:8
    crt0.o                    /home/wojciech/git/WojciechGw/cc65/asminc/zeropage.inc:11
    addysp.o                  runtime/addysp.s:8
    addeqsp.o                 runtime/addeqsp.s:8
    write_stub.c.17132.2.o    write_stub.c.17132.2.s:10
    ext-ss-charnoise.c.17132.0.o ext-ss-charnoise.c.17132.0.s:10
callmain (callmain.o):
    crt0.o                    rp6502/crt0.s:7
copydata (copydata.o):
    crt0.o                    rp6502/crt0.s:12
ctypemaskdirect (ctypemask.o):
    strlower.o                common/strlower.s:14
decax1 (decax1.o):
    open.o                    ../libwrk/rp6502/open.s:105
decsp2 (decsp2.o):
    ext-ss-charnoise.c.17132.0.o ext-ss-charnoise.c.17132.0.s:1000
    ext-ss-charnoise.c.17132.0.o ext-ss-charnoise.c.17132.0.s:1000
decsp3 (decsp3.o):
    ext-ss-charnoise.c.17132.0.o ext-ss-charnoise.c.17132.0.s:1000
    ext-ss-charnoise.c.17132.0.o ext-ss-charnoise.c.17132.0.s:1000
    ext-ss-charnoise.c.17132.0.o ext-ss-charnoise.c.17132.0.s:1000
    ext-ss-charnoise.c.17132.0.o ext-ss-charnoise.c.17132.0.s:1000
decsp4 (decsp4.o):
    lpush.o                   runtime/lpush.s:12
    sprintf.o                 common/sprintf.s:8
    ext-ss-charnoise.c.17132.0.o ext-ss-charnoise.c.17132.0.s:1000
    ext-ss-charnoise.c.17132.0.o ext-ss-charnoise.c.17132.0.s:1000
decsp6 (decsp6.o):
    _printf.o                 common/_printf.s:11
    ext-ss-charnoise.c.17132.0.o ext-ss-charnoise.c.17132.0.s:1000
donelib (condes.o):
    crt0.o                    rp6502/crt0.s:12
    crt0_cmd.s.17132.1.o      crt0_cmd.s:2
enter (enter.o):
    open.o                    ../libwrk/rp6502/open.s:105
incsp1 (incsp1.o):
    ria_attr.o                ../libwrk/rp6502/ria_attr.s:80
    ext-ss-charnoise.c.17132.0.o ext-ss-charnoise.c.17132.0.s:1000
incsp2 (incsp2.o):
    vsnprintf.o               common/vsnprintf.s:9
    popptr1.o                 runtime/popptr1.s:8
    close.o                   ../libwrk/rp6502/close.s:47
    ext-ss-charnoise.c.17132.0.o ext-ss-charnoise.c.17132.0.s:1000
    ext-ss-charnoise.c.17132.0.o ext-ss-charnoise.c.17132.0.s:1000
    ext-ss-charnoise.c.17132.0.o ext-ss-charnoise.c.17132.0.s:1000
incsp4 (incsp4.o):
    ext-ss-charnoise.c.17132.0.o ext-ss-charnoise.c.17132.0.s:1000
incsp5 (incsp5.o):
    ria_attr.o                ../libwrk/rp6502/ria_attr.s:80
incsp6 (incsp6.o):
    vsnprintf.o               common/vsnprintf.s:9
    fwrite.o                  common/fwrite.s:11
    vfprintf.o                common/vfprintf.s:9
    read_xram.o               ../libwrk/rp6502/read_xram.s:57
incsp8 (incsp8.o):
    lseek.o                   ../libwrk/rp6502/lseek.s:58
    ext-ss-charnoise.c.17132.0.o ext-ss-charnoise.c.17132.0.s:1000
initlib (condes.o):
    crt0.o                    rp6502/crt0.s:12
    crt0_cmd.s.17132.1.o      crt0_cmd.s:2
initmainargs (initmainargs.s.17132.3.o):
    ext-ss-charnoise.c.17132.0.o ext-ss-charnoise.c.17132.0.s:14
ldax0sp (ldaxsp.o):
    read_xram.o               ../libwrk/rp6502/read_xram.s:57
    open.o                    ../libwrk/rp6502/open.s:105
    close.o                   ../libwrk/rp6502/close.s:47
ldaxi (ldaxi.o):
    open.o                    ../libwrk/rp6502/open.s:105
ldaxysp (ldaxsp.o):
    vsnprintf.o               common/vsnprintf.s:9
    fwrite.o                  common/fwrite.s:11
    read_xram.o               ../libwrk/rp6502/read_xram.s:57
    lseek.o                   ../libwrk/rp6502/lseek.s:58
ldeaxysp (ldeaxysp.o):
    ria_attr.o                ../libwrk/rp6502/ria_attr.s:80
    lseek.o                   ../libwrk/rp6502/lseek.s:58
leaa0sp (leaaxsp.o):
    open.o                    ../libwrk/rp6502/open.s:105
leavey (leave.o):
    open.o                    ../libwrk/rp6502/open.s:105
mul8x16 (mul8.o):
    mul.o                     runtime/mul.s:8
mul8x16a (mul8.o):
    mul.o                     runtime/mul.s:8
negax (negabs.o):
    shelp.o                   runtime/shelp.s:11
    mod.o                     runtime/mod.s:11
negeax (lneg.o):
    ltoa.o                    common/ltoa.s:9
popax (incsp2.o):
    memcpy.o                  common/memcpy.s:14
    vsnprintf.o               common/vsnprintf.s:9
    ltoa.o                    common/ltoa.s:9
    _printf.o                 common/_printf.s:11
    shelp.o                   runtime/shelp.s:11
popptr1 (popptr1.o):
    memcpy.o                  common/memcpy.s:14
    mul.o                     runtime/mul.s:9
    ltoa.o                    common/ltoa.s:9
    udiv.o                    runtime/udiv.s:9
    mul8.o                    runtime/mul8.s:9
popsargsudiv16 (shelp.o):
    mod.o                     runtime/mod.s:11
ptr1 (zeropage.o):
    memcpy.o                  common/memcpy.s:15
    vsnprintf.o               common/vsnprintf.s:11
    strlower.o                common/strlower.s:13
    mul.o                     runtime/mul.s:10
    ltoa.o                    common/ltoa.s:11
    ldaxi.o                   runtime/ldaxi.s:8
    fwrite.o                  common/fwrite.s:14
    copydata.o                common/copydata.s:9
    _printf.o                 /home/wojciech/git/WojciechGw/cc65/asminc/zeropage.inc:12
    zerobss.o                 common/zerobss.s:9
    vfprintf.o                common/vfprintf.s:11
    udiv.o                    runtime/udiv.s:10
    sprintf.o                 common/sprintf.s:9
    shelp.o                   runtime/shelp.s:12
    printf.o                  common/printf.s:9
    popptr1.o                 runtime/popptr1.s:9
    open.o                    ../libwrk/rp6502/open.s:11
    mul8.o                    runtime/mul8.s:10
    write_stub.c.17132.2.o    write_stub.c.17132.2.s:11
    ext-ss-charnoise.c.17132.0.o ext-ss-charnoise.c.17132.0.s:11
ptr2 (zeropage.o):
    memcpy.o                  common/memcpy.s:15
    strlower.o                common/strlower.s:13
    ltoa.o                    common/ltoa.s:11
    copydata.o                common/copydata.s:9
    _printf.o                 /home/wojciech/git/WojciechGw/cc65/asminc/zeropage.inc:12
ptr3 (zeropage.o):
    memcpy.o                  common/memcpy.s:15
    ltoa.o                    common/ltoa.s:11
ptr4 (zeropage.o):
    mul.o                     runtime/mul.s:10
    udiv.o                    runtime/udiv.s:10
    strlen.o                  common/strlen.s:12
    shelp.o                   runtime/shelp.s:12
    mul8.o                    runtime/mul8.s:10
push0 (pushax.o):
    ext-ss-charnoise.c.17132.0.o ext-ss-charnoise.c.17132.0.s:1000
    ext-ss-charnoise.c.17132.0.o ext-ss-charnoise.c.17132.0.s:1000
    ext-ss-charnoise.c.17132.0.o ext-ss-charnoise.c.17132.0.s:1000
    ext-ss-charnoise.c.17132.0.o ext-ss-charnoise.c.17132.0.s:1000
push1 (push1.o):
    _printf.o                 common/_printf.s:11
    vfprintf.o                common/vfprintf.s:9
pusha (pusha.o):
    ria_attr.o                ../libwrk/rp6502/ria_attr.s:80
    ria_attr.o                ../libwrk/rp6502/ria_attr.s:80
    ext-ss-charnoise.c.17132.0.o ext-ss-charnoise.c.17132.0.s:1000
    ext-ss-charnoise.c.17132.0.o ext-ss-charnoise.c.17132.0.s:1000
pusha0 (pushax.o):
    push1.o                   runtime/push1.s:8
    fwrite.o                  common/fwrite.s:11
    ext-ss-charnoise.c.17132.0.o ext-ss-charnoise.c.17132.0.s:1000
    ext-ss-charnoise.c.17132.0.o ext-ss-charnoise.c.17132.0.s:1000
    ext-ss-charnoise.c.17132.0.o ext-ss-charnoise.c.17132.0.s:1000
pushax (pushax.o):
    fwrite.o                  common/fwrite.s:11
    callmain.o                runtime/callmain.s:11
    _printf.o                 common/_printf.s:11
    read_xram.o               ../libwrk/rp6502/read_xram.s:57
    printf.o                  common/printf.s:8
    open.o                    ../libwrk/rp6502/open.s:105
    lseek.o                   ../libwrk/rp6502/lseek.s:58
    close.o                   ../libwrk/rp6502/close.s:47
    write_stub.c.17132.2.o    write_stub.c.17132.2.s:64
    ext-ss-charnoise.c.17132.0.o ext-ss-charnoise.c.17132.0.s:1000
    ext-ss-charnoise.c.17132.0.o ext-ss-charnoise.c.17132.0.s:1000
    ext-ss-charnoise.c.17132.0.o ext-ss-charnoise.c.17132.0.s:1000
    ext-ss-charnoise.c.17132.0.o ext-ss-charnoise.c.17132.0.s:1000
    ext-ss-charnoise.c.17132.0.o ext-ss-charnoise.c.17132.0.s:1000
pusheax (lpush.o):
    _printf.o                 common/_printf.s:11
pushw0sp (pushwsp.o):
    vsprintf.o                common/vsprintf.s:8
pushwysp (pushwsp.o):
    fwrite.o                  common/fwrite.s:11
    vfprintf.o                common/vfprintf.s:9
    write_stub.c.17132.2.o    write_stub.c.17132.2.s:64
    ext-ss-charnoise.c.17132.0.o ext-ss-charnoise.c.17132.0.s:1000
regbank (zeropage.o):
    _printf.o                 /home/wojciech/git/WojciechGw/cc65/asminc/zeropage.inc:14
shlax3 (aslax3.o):
    ext-ss-charnoise.c.17132.0.o ext-ss-charnoise.c.17132.0.s:1000
shlax4 (aslax4.o):
    ext-ss-charnoise.c.17132.0.o ext-ss-charnoise.c.17132.0.s:1000
sreg (zeropage.o):
    lneg.o                    runtime/lneg.s:11
    ltoa.o                    common/ltoa.s:11
    lpush.o                   runtime/lpush.s:13
    ldeaxysp.o                runtime/ldeaxysp.s:12
    axlong.o                  runtime/axlong.s:9
    _printf.o                 /home/wojciech/git/WojciechGw/cc65/asminc/zeropage.inc:11
    udiv.o                    runtime/udiv.s:10
    ria.o                     rp6502/ria.s:13
    mod.o                     runtime/mod.s:12
stax0sp (staxsp.o):
    ext-ss-charnoise.c.17132.0.o ext-ss-charnoise.c.17132.0.s:1000
staxysp (staxsp.o):
    vsprintf.o                common/vsprintf.s:8
    ext-ss-charnoise.c.17132.0.o ext-ss-charnoise.c.17132.0.s:1000
subeq0sp (subeqsp.o):
    open.o                    ../libwrk/rp6502/open.s:105
    write_stub.c.17132.2.o    write_stub.c.17132.2.s:64
    ext-ss-charnoise.c.17132.0.o ext-ss-charnoise.c.17132.0.s:1000
tmp1 (zeropage.o):
    mul.o                     runtime/mul.s:10
    ltoa.o                    common/ltoa.s:11
    copydata.o                common/copydata.s:9
    _printf.o                 /home/wojciech/git/WojciechGw/cc65/asminc/zeropage.inc:13
    shelp.o                   runtime/shelp.s:12
    mod.o                     runtime/mod.s:12
    aslax4.o                  runtime/aslax4.s:8
    aslax3.o                  runtime/aslax3.s:8
    ext-ss-charnoise.c.17132.0.o ext-ss-charnoise.c.17132.0.s:11
tmp2 (zeropage.o):
    shelp.o                   runtime/shelp.s:12
tosmoda0 (mod.o):
    ext-ss-charnoise.c.17132.0.o ext-ss-charnoise.c.17132.0.s:1000
    ext-ss-charnoise.c.17132.0.o ext-ss-charnoise.c.17132.0.s:1000
tosudivax (udiv.o):
    fwrite.o                  common/fwrite.s:12
tosumula0 (mul8.o):
    ext-ss-charnoise.c.17132.0.o ext-ss-charnoise.c.17132.0.s:1000
tosumulax (mul.o):
    fwrite.o                  common/fwrite.s:12
udiv16 (udiv.o):
    shelp.o                   runtime/shelp.s:11
vsnprintf (vsnprintf.o):
    vsprintf.o                common/vsprintf.s:9
zerobss (zerobss.o):
    crt0.o                    rp6502/crt0.s:12

